target datalayout = "e-m:e-p270:32:32-p271:32:32-p272:64:64-i64:64-i128:128-f80:128-n8:16:32:64-S128"
target triple = "x86_64-pc-linux-gnu"

%struct.blob = type { ptr, ptr, i64, i64, i32 }

@.str.1 = private unnamed_addr constant [10 x i8] c"b != NULL\00", align 1
@.str.2 = private unnamed_addr constant [108 x i8] c"generated/home/dtcxzyw/WorkSpace/Projects/compilers/llvm-opt-benchmark/bench/clamav/clamav/libclamav/blob.c\00", align 1
@__PRETTY_FUNCTION__.blobGetDataSize = private unnamed_addr constant [37 x i8] c"size_t blobGetDataSize(const blob *)\00", align 1

; Function Attrs: nounwind uwtable
define i64 @blobGetDataSize(ptr noundef %0) #0 {
  %2 = alloca ptr, align 8
  store ptr %0, ptr %2, align 8
  %3 = load ptr, ptr %2, align 8
  %4 = icmp ne ptr %3, null
  br i1 %4, label %5, label %6

5:                                                ; preds = %1
  br label %7

6:                                                ; preds = %1
  call void @__assert_fail(ptr noundef @.str.1, ptr noundef @.str.2, i32 noundef 290, ptr noundef @__PRETTY_FUNCTION__.blobGetDataSize) #8
  unreachable

7:                                                ; preds = %5
  %8 = load ptr, ptr %2, align 8
  %9 = getelementptr inbounds %struct.blob, ptr %8, i32 0, i32 2
  %10 = load i64, ptr %9, align 8
  ret i64 %10
}