; Function Attrs: nounwind uwtable
define i64 @blobGetDataSize(ptr noundef readonly %0) local_unnamed_addr #2 {
  %.not = icmp eq ptr %0, null
  br i1 %.not, label %2, label %3

2:                                                ; preds = %1
  tail call void @__assert_fail(ptr noundef nonnull @.str.1, ptr noundef nonnull @.str.2, i32 noundef 290, ptr noundef nonnull @__PRETTY_FUNCTION__.blobGetDataSize) #17
  unreachable

3:                                                ; preds = %1
  %4 = getelementptr inbounds i8, ptr %0, i64 16
  %5 = load i64, ptr %4, align 8
  ret i64 %5
}